; Function Attrs: nounwind uwtable
define ptr @l_Lake_BinderSyntaxView_mkDepArrow(ptr noundef %0, ptr noundef %1) local_unnamed_addr #0 {
  %3 = getelementptr inbounds nuw i8, ptr %1, i64 8
  %4 = load ptr, ptr %3, align 8, !tbaa !11
  %5 = ptrtoint ptr %4 to i64
  %6 = and i64 %5, 1
  %.not = icmp eq i64 %6, 0
  br i1 %.not, label %7, label %lean_inc.exit16

7:                                                ; preds = %2
  %.val.i = load i32, ptr %4, align 4, !tbaa !4
  %8 = icmp sgt i32 %.val.i, 0
  br i1 %8, label %9, label %11, !prof !9

9:                                                ; preds = %7
  %10 = add nuw i32 %.val.i, 1
  store i32 %10, ptr %4, align 4, !tbaa !4
  br label %14

11:                                               ; preds = %7
  %.not.i17 = icmp eq i32 %.val.i, 0
  br i1 %.not.i17, label %14, label %12

12:                                               ; preds = %11
  tail call void @lean_inc_ref_cold(ptr noundef nonnull %4) #5
  br label %14

lean_inc.exit16:                                  ; preds = %2
  %13 = tail call ptr @l_Lean_SourceInfo_fromRef(ptr noundef %4, i8 noundef zeroext 0) #5
  br label %lean_dec.exit

14:                                               ; preds = %12, %11, %9
  %15 = tail call ptr @l_Lean_SourceInfo_fromRef(ptr noundef nonnull %4, i8 noundef zeroext 0) #5
  %16 = load i32, ptr %4, align 4, !tbaa !4
  %17 = icmp sgt i32 %16, 1
  br i1 %17, label %18, label %20, !prof !9

18:                                               ; preds = %14
  %19 = add nsw i32 %16, -1
  store i32 %19, ptr %4, align 4, !tbaa !4
  br label %lean_dec.exit

20:                                               ; preds = %14
  %.not.i = icmp eq i32 %16, 0
  br i1 %.not.i, label %lean_dec.exit, label %21

21:                                               ; preds = %20
  tail call void @lean_dec_ref_cold(ptr noundef nonnull %4) #5
  br label %lean_dec.exit

lean_dec.exit:                                    ; preds = %21, %20, %18, %lean_inc.exit16
  %22 = phi ptr [ %13, %lean_inc.exit16 ], [ %15, %18 ], [ %15, %20 ], [ %15, %21 ]
  %23 = tail call ptr @l_Lake_BinderSyntaxView_mkBinder(ptr noundef nonnull %1)
  %24 = load ptr, ptr @l_Lake_BinderSyntaxView_mkDepArrow___closed__3, align 8, !tbaa !11
  %25 = ptrtoint ptr %22 to i64
  %26 = and i64 %25, 1
  %.not21 = icmp eq i64 %26, 0
  br i1 %.not21, label %27, label %lean_inc.exit

27:                                               ; preds = %lean_dec.exit
  %.val.i18 = load i32, ptr %22, align 4, !tbaa !4
  %28 = icmp sgt i32 %.val.i18, 0
  br i1 %28, label %29, label %31, !prof !9

29:                                               ; preds = %27
  %30 = add nuw i32 %.val.i18, 1
  store i32 %30, ptr %22, align 4, !tbaa !4
  br label %lean_inc.exit

31:                                               ; preds = %27
  %.not.i19 = icmp eq i32 %.val.i18, 0
  br i1 %.not.i19, label %lean_inc.exit, label %32

32:                                               ; preds = %31
  tail call void @lean_inc_ref_cold(ptr noundef nonnull %22) #5
  br label %lean_inc.exit

lean_inc.exit:                                    ; preds = %32, %31, %29, %lean_dec.exit
  tail call void @lean_inc_heartbeat() #5
  %33 = tail call noalias ptr @mi_malloc_small(i64 noundef 24) #5
  %34 = icmp eq ptr %33, null
  br i1 %34, label %35, label %lean_alloc_ctor.exit

35:                                               ; preds = %lean_inc.exit
  tail call void @lean_internal_panic_out_of_memory() #6
  unreachable

lean_alloc_ctor.exit:                             ; preds = %lean_inc.exit
  %36 = getelementptr inbounds nuw i8, ptr %33, i64 4
  store i32 1, ptr %33, align 4, !tbaa !4
  store i32 33685528, ptr %36, align 4
  %37 = getelementptr inbounds nuw i8, ptr %33, i64 8
  store ptr %22, ptr %37, align 8, !tbaa !11
  %38 = getelementptr inbounds nuw i8, ptr %33, i64 16
  store ptr %24, ptr %38, align 8, !tbaa !11
  %39 = load ptr, ptr @l_Lake_BinderSyntaxView_mkDepArrow___closed__2, align 8, !tbaa !11
  %40 = tail call ptr @l_Lean_Syntax_node3(ptr noundef %22, ptr noundef %39, ptr noundef %23, ptr noundef nonnull %33, ptr noundef %0) #5
  ret ptr %40
}